target datalayout = "e-m:e-p270:32:32-p271:32:32-p272:64:64-i64:64-i128:128-f80:128-n8:16:32:64-S128"
target triple = "x86_64-pc-linux-gnu"

%struct.ssl_st = type { i32, ptr, ptr, ptr, %struct.CRYPTO_REF_COUNT, ptr, %struct.crypto_ex_data_st }
%struct.CRYPTO_REF_COUNT = type { i32 }
%struct.crypto_ex_data_st = type { ptr, ptr }
%struct.ssl_connection_st = type { %struct.ssl_st, ptr, i32, ptr, ptr, ptr, i32, ptr, i32, i32, i32, i32, %struct.OSSL_TIME, %struct.OSSL_TIME, %struct.ossl_statem_st, i32, ptr, ptr, i64, i64, i64, %struct.ossl_quic_tls_callbacks_st, ptr, ptr, %struct.anon, ptr, ptr, ptr, i32, ptr, %struct.ssl_dane_st, ptr, ptr, ptr, ptr, i32, [64 x i8], [64 x i8], [64 x i8], [64 x i8], [64 x i8], [64 x i8], [64 x i8], [64 x i8], [64 x i8], [64 x i8], [64 x i8], [64 x i8], ptr, [64 x i8], i64, i32, i64, [32 x i8], ptr, ptr, ptr, i64, ptr, [32 x i8], i64, i32, ptr, ptr, i32, i32, ptr, ptr, ptr, ptr, ptr, i64, ptr, ptr, i64, i32, i32, i32, i64, i32, i32, i64, i64, i64, %struct.anon.1, ptr, i32, ptr, ptr, ptr, i32, ptr, ptr, ptr, i32, i32, i32, i32, ptr, i64, i32, ptr, %struct.srp_ctx_st, ptr, %struct.record_layer_st, ptr, ptr, ptr, ptr, i64, i32, i32, i32, i64, i64, i64, ptr, ptr, ptr, ptr, ptr, i64, ptr, i64, ptr, i64 }
%struct.OSSL_TIME = type { i64 }
%struct.ossl_statem_st = type { i32, i32, i32, i32, i32, i32, i32, i32, i32, i32, i32, i32, i32, ptr, ptr, ptr, i8 }
%struct.ossl_quic_tls_callbacks_st = type { ptr, ptr, ptr, ptr, ptr, ptr }
%struct.anon = type { i64, [32 x i8], [32 x i8], ptr, ptr, i32, i32, i32, i32, [2 x i8], i32, i32, i32, i32, %struct.anon.0, [64 x i8], i64, [64 x i8], i64, i32, i32, ptr, i64, ptr, i64, i32, i8, i8, i16, ptr, i16 }
%struct.anon.0 = type { [128 x i8], i64, [128 x i8], i64, i64, i32, ptr, ptr, [4 x ptr], [4 x i16], i64, i32, ptr, i64, ptr, i64, ptr, ptr, ptr, i32, i64, ptr, i32, ptr, i64, ptr, i64, ptr, i64, ptr, ptr, ptr, ptr, i64, i64, ptr, ptr, i32, i32, i32, i32 }
%struct.ssl_dane_st = type { ptr, ptr, ptr, ptr, ptr, i32, i32, i32, i64 }
%struct.anon.1 = type { [29 x i8], ptr, ptr, ptr, i32, ptr, i16, i32, %struct.anon.2, i32, i32, i64, ptr, i64, ptr, i64, ptr, i64, ptr, i64, ptr, i64, ptr, ptr, ptr, ptr, ptr, ptr, ptr, i64, ptr, i64, i32, i32, i32, i32, ptr, i64, i32, i8, i32, [4 x i32], i32, i8, i8, i8, i8 }
%struct.anon.2 = type { ptr, ptr, ptr, i64 }
%struct.srp_ctx_st = type { ptr, ptr, ptr, ptr, ptr, ptr, ptr, ptr, ptr, ptr, ptr, ptr, ptr, ptr, i32, i64 }
%struct.record_layer_st = type { ptr, ptr, ptr, ptr, ptr, ptr, ptr, ptr, i64, i32, i64, [4 x i8], i64, i64, i8, ptr, i32, ptr, ptr, ptr, i64, i64, i64, i64, [32 x %struct.tls_record_st] }
%struct.tls_record_st = type { ptr, i32, i8, ptr, ptr, i64, i64, i16, [8 x i8] }
%struct.ssl_method_st = type { i32, i32, i64, ptr, ptr, ptr, ptr, ptr, ptr, ptr, ptr, ptr, ptr, ptr, ptr, ptr, ptr, ptr, ptr, ptr, ptr, ptr, ptr, ptr, ptr, ptr, ptr, ptr, ptr, ptr, ptr, ptr }
%struct.version_info = type { i32, ptr, ptr }

; Function Attrs: nounwind uwtable
define i32 @ssl_get_min_max_version(ptr noundef %0, ptr noundef %1, ptr noundef %2, ptr noundef %3) #0 {
  %5 = alloca i32, align 4
  %6 = alloca ptr, align 8
  %7 = alloca ptr, align 8
  %8 = alloca ptr, align 8
  %9 = alloca ptr, align 8
  %10 = alloca i32, align 4
  %11 = alloca i32, align 4
  %12 = alloca i32, align 4
  %13 = alloca ptr, align 8
  %14 = alloca ptr, align 8
  %15 = alloca ptr, align 8
  %16 = alloca ptr, align 8
  %17 = alloca i32, align 4
  store ptr %0, ptr %6, align 8, !tbaa !18
  store ptr %1, ptr %7, align 8, !tbaa !119
  store ptr %2, ptr %8, align 8, !tbaa !119
  store ptr %3, ptr %9, align 8, !tbaa !119
  call void @llvm.lifetime.start.p0(i64 4, ptr %10) #9
  call void @llvm.lifetime.start.p0(i64 4, ptr %11) #9
  call void @llvm.lifetime.start.p0(i64 4, ptr %12) #9
  call void @llvm.lifetime.start.p0(i64 8, ptr %13) #9
  call void @llvm.lifetime.start.p0(i64 8, ptr %14) #9
  call void @llvm.lifetime.start.p0(i64 8, ptr %15) #9
  call void @llvm.lifetime.start.p0(i64 8, ptr %16) #9
  %18 = load ptr, ptr %6, align 8, !tbaa !18
  %19 = getelementptr inbounds nuw %struct.ssl_connection_st, ptr %18, i32 0, i32 0
  store ptr %19, ptr %16, align 8, !tbaa !3
  %20 = load ptr, ptr %16, align 8, !tbaa !3
  %21 = getelementptr inbounds nuw %struct.ssl_st, ptr %20, i32 0, i32 3
  %22 = load ptr, ptr %21, align 8, !tbaa !120
  %23 = getelementptr inbounds nuw %struct.ssl_method_st, ptr %22, i32 0, i32 0
  %24 = load i32, ptr %23, align 8, !tbaa !92
  switch i32 %24, label %25 [
    i32 65536, label %43
    i32 131071, label %44
  ]

25:                                               ; preds = %4
  %26 = load ptr, ptr %6, align 8, !tbaa !18
  %27 = getelementptr inbounds nuw %struct.ssl_connection_st, ptr %26, i32 0, i32 2
  %28 = load i32, ptr %27, align 8, !tbaa !95
  %29 = load ptr, ptr %8, align 8, !tbaa !119
  store i32 %28, ptr %29, align 4, !tbaa !85
  %30 = load ptr, ptr %7, align 8, !tbaa !119
  store i32 %28, ptr %30, align 4, !tbaa !85
  %31 = load ptr, ptr %9, align 8, !tbaa !119
  %32 = icmp eq ptr %31, null
  %33 = zext i1 %32 to i32
  %34 = icmp ne i32 %33, 0
  %35 = xor i1 %34, true
  %36 = xor i1 %35, true
  %37 = zext i1 %36 to i32
  %38 = sext i32 %37 to i64
  %39 = call i64 @llvm.expect.i64(i64 %38, i64 1)
  %40 = icmp ne i64 %39, 0
  br i1 %40, label %42, label %41

41:                                               ; preds = %25
  store i32 786691, ptr %5, align 4
  store i32 1, ptr %17, align 4
  br label %119

42:                                               ; preds = %25
  store i32 0, ptr %5, align 4
  store i32 1, ptr %17, align 4
  br label %119

43:                                               ; preds = %4
  store ptr @tls_version_table, ptr %14, align 8, !tbaa !8
  br label %45

44:                                               ; preds = %4
  store ptr @dtls_version_table, ptr %14, align 8, !tbaa !8
  br label %45

45:                                               ; preds = %44, %43
  store i32 0, ptr %10, align 4, !tbaa !85
  %46 = load ptr, ptr %7, align 8, !tbaa !119
  store i32 0, ptr %46, align 4, !tbaa !85
  store i32 1, ptr %12, align 4, !tbaa !85
  %47 = load ptr, ptr %9, align 8, !tbaa !119
  %48 = icmp ne ptr %47, null
  br i1 %48, label %49, label %51

49:                                               ; preds = %45
  %50 = load ptr, ptr %9, align 8, !tbaa !119
  store i32 0, ptr %50, align 4, !tbaa !85
  br label %51

51:                                               ; preds = %49, %45
  store i32 0, ptr %11, align 4, !tbaa !85
  %52 = load ptr, ptr %14, align 8, !tbaa !8
  store ptr %52, ptr %15, align 8, !tbaa !8
  br label %53

53:                                               ; preds = %109, %51
  %54 = load ptr, ptr %15, align 8, !tbaa !8
  %55 = getelementptr inbounds nuw %struct.version_info, ptr %54, i32 0, i32 0
  %56 = load i32, ptr %55, align 8, !tbaa !121
  %57 = icmp ne i32 %56, 0
  br i1 %57, label %58, label %112

58:                                               ; preds = %53
  %59 = load ptr, ptr %15, align 8, !tbaa !8
  %60 = getelementptr inbounds nuw %struct.version_info, ptr %59, i32 0, i32 1
  %61 = load ptr, ptr %60, align 8, !tbaa !123
  %62 = icmp eq ptr %61, null
  br i1 %62, label %63, label %64

63:                                               ; preds = %58
  store i32 1, ptr %12, align 4, !tbaa !85
  store i32 0, ptr %11, align 4, !tbaa !85
  br label %109

64:                                               ; preds = %58
  %65 = load ptr, ptr %15, align 8, !tbaa !8
  %66 = getelementptr inbounds nuw %struct.version_info, ptr %65, i32 0, i32 1
  %67 = load ptr, ptr %66, align 8, !tbaa !123
  %68 = call ptr %67()
  store ptr %68, ptr %13, align 8, !tbaa !124
  %69 = load i32, ptr %12, align 4, !tbaa !85
  %70 = icmp eq i32 %69, 1
  br i1 %70, label %71, label %78

71:                                               ; preds = %64
  %72 = load i32, ptr %11, align 4, !tbaa !85
  %73 = icmp eq i32 %72, 0
  br i1 %73, label %74, label %78

74:                                               ; preds = %71
  %75 = load ptr, ptr %15, align 8, !tbaa !8
  %76 = getelementptr inbounds nuw %struct.version_info, ptr %75, i32 0, i32 0
  %77 = load i32, ptr %76, align 8, !tbaa !121
  store i32 %77, ptr %11, align 4, !tbaa !85
  br label %78

78:                                               ; preds = %74, %71, %64
  %79 = load ptr, ptr %6, align 8, !tbaa !18
  %80 = load ptr, ptr %13, align 8, !tbaa !124
  %81 = call i32 @ssl_method_error(ptr noundef %79, ptr noundef %80)
  %82 = icmp ne i32 %81, 0
  br i1 %82, label %83, label %84

83:                                               ; preds = %78
  store i32 1, ptr %12, align 4, !tbaa !85
  br label %108

84:                                               ; preds = %78
  %85 = load i32, ptr %12, align 4, !tbaa !85
  %86 = icmp ne i32 %85, 0
  br i1 %86, label %92, label %87

87:                                               ; preds = %84
  %88 = load ptr, ptr %13, align 8, !tbaa !124
  %89 = getelementptr inbounds nuw %struct.ssl_method_st, ptr %88, i32 0, i32 0
  %90 = load i32, ptr %89, align 8, !tbaa !92
  %91 = load ptr, ptr %7, align 8, !tbaa !119
  store i32 %90, ptr %91, align 4, !tbaa !85
  br label %107

92:                                               ; preds = %84
  %93 = load ptr, ptr %9, align 8, !tbaa !119
  %94 = icmp ne ptr %93, null
  br i1 %94, label %95, label %101

95:                                               ; preds = %92
  %96 = load i32, ptr %11, align 4, !tbaa !85
  %97 = icmp ne i32 %96, 0
  br i1 %97, label %98, label %101

98:                                               ; preds = %95
  %99 = load i32, ptr %11, align 4, !tbaa !85
  %100 = load ptr, ptr %9, align 8, !tbaa !119
  store i32 %99, ptr %100, align 4, !tbaa !85
  br label %101

101:                                              ; preds = %98, %95, %92
  %102 = load ptr, ptr %13, align 8, !tbaa !124
  %103 = getelementptr inbounds nuw %struct.ssl_method_st, ptr %102, i32 0, i32 0
  %104 = load i32, ptr %103, align 8, !tbaa !92
  store i32 %104, ptr %10, align 4, !tbaa !85
  %105 = load i32, ptr %10, align 4, !tbaa !85
  %106 = load ptr, ptr %7, align 8, !tbaa !119
  store i32 %105, ptr %106, align 4, !tbaa !85
  store i32 0, ptr %12, align 4, !tbaa !85
  br label %107

107:                                              ; preds = %101, %87
  br label %108

108:                                              ; preds = %107, %83
  br label %109

109:                                              ; preds = %108, %63
  %110 = load ptr, ptr %15, align 8, !tbaa !8
  %111 = getelementptr inbounds nuw %struct.version_info, ptr %110, i32 1
  store ptr %111, ptr %15, align 8, !tbaa !8
  br label %53, !llvm.loop !125

112:                                              ; preds = %53
  %113 = load i32, ptr %10, align 4, !tbaa !85
  %114 = load ptr, ptr %8, align 8, !tbaa !119
  store i32 %113, ptr %114, align 4, !tbaa !85
  %115 = load i32, ptr %10, align 4, !tbaa !85
  %116 = icmp eq i32 %115, 0
  br i1 %116, label %117, label %118

117:                                              ; preds = %112
  store i32 191, ptr %5, align 4
  store i32 1, ptr %17, align 4
  br label %119

118:                                              ; preds = %112
  store i32 0, ptr %5, align 4
  store i32 1, ptr %17, align 4
  br label %119

119:                                              ; preds = %118, %117, %42, %41
  call void @llvm.lifetime.end.p0(i64 8, ptr %16) #9
  call void @llvm.lifetime.end.p0(i64 8, ptr %15) #9
  call void @llvm.lifetime.end.p0(i64 8, ptr %14) #9
  call void @llvm.lifetime.end.p0(i64 8, ptr %13) #9
  call void @llvm.lifetime.end.p0(i64 4, ptr %12) #9
  call void @llvm.lifetime.end.p0(i64 4, ptr %11) #9
  call void @llvm.lifetime.end.p0(i64 4, ptr %10) #9
  %120 = load i32, ptr %5, align 4
  ret i32 %120
}