; Function Attrs: nounwind uwtable
define range(i32 0, 786692) i32 @ssl_get_min_max_version(ptr noundef %0, ptr noundef writeonly captures(none) initializes((0, 4)) %1, ptr noundef writeonly captures(none) %2, ptr noundef writeonly captures(address_is_null) %3) local_unnamed_addr #0 {
  %5 = getelementptr inbounds nuw i8, ptr %0, i64 24
  %6 = load ptr, ptr %5, align 8, !tbaa !93
  %7 = load i32, ptr %6, align 8, !tbaa !87
  switch i32 %7, label %8 [
    i32 65536, label %13
    i32 131071, label %12
  ]

8:                                                ; preds = %4
  %9 = getelementptr inbounds nuw i8, ptr %0, i64 72
  %10 = load i32, ptr %9, align 8, !tbaa !90
  store i32 %10, ptr %2, align 4, !tbaa !101
  store i32 %10, ptr %1, align 4, !tbaa !101
  %11 = icmp eq ptr %3, null
  %. = select i1 %11, i32 0, i32 786691, !prof !110
  br label %54

12:                                               ; preds = %4
  br label %13

13:                                               ; preds = %4, %12
  %.036 = phi ptr [ @dtls_version_table, %12 ], [ @tls_version_table, %4 ]
  store i32 0, ptr %1, align 4, !tbaa !101
  %.not60 = icmp eq ptr %3, null
  br i1 %.not60, label %14, label %.thread63

14:                                               ; preds = %13
  %15 = load i32, ptr %.036, align 16, !tbaa !94
  %.not55 = icmp eq i32 %15, 0
  br i1 %.not55, label %._crit_edge.thread, label %.lr.ph.split.us

.thread63:                                        ; preds = %13
  store i32 0, ptr %3, align 4, !tbaa !101
  %16 = load i32, ptr %.036, align 16, !tbaa !94
  %.not5564 = icmp eq i32 %16, 0
  br i1 %.not5564, label %._crit_edge.thread, label %.lr.ph.split

.lr.ph.split.us:                                  ; preds = %14, %31
  %17 = phi i32 [ %33, %31 ], [ %15, %14 ]
  %.03559.us = phi ptr [ %32, %31 ], [ %.036, %14 ]
  %.03758.us = phi i32 [ %.1.us, %31 ], [ 0, %14 ]
  %.03857.us = phi i32 [ %.139.us, %31 ], [ 1, %14 ]
  %.04056.us = phi i32 [ %.141.us, %31 ], [ 0, %14 ]
  %18 = getelementptr inbounds nuw i8, ptr %.03559.us, i64 8
  %19 = load ptr, ptr %18, align 8, !tbaa !96
  %20 = icmp eq ptr %19, null
  br i1 %20, label %31, label %21

21:                                               ; preds = %.lr.ph.split.us
  %22 = tail call ptr %19() #11
  %23 = icmp eq i32 %.03857.us, 1
  %24 = icmp eq i32 %.04056.us, 0
  %or.cond.us = select i1 %23, i1 %24, i1 false
  %25 = tail call fastcc i32 @ssl_method_error(ptr noundef %0, ptr noundef %22)
  %.not4549.us = icmp eq i32 %25, 0
  br i1 %or.cond.us, label %.thread.us, label %26

26:                                               ; preds = %21
  br i1 %.not4549.us, label %27, label %31

27:                                               ; preds = %26
  %.not46.us = icmp eq i32 %.03857.us, 0
  br i1 %.not46.us, label %28, label %.thread51.us

28:                                               ; preds = %27
  %29 = load i32, ptr %22, align 8, !tbaa !87
  br label %.sink.split

.thread.us:                                       ; preds = %21
  br i1 %.not4549.us, label %.thread51.us, label %31

.thread51.us:                                     ; preds = %.thread.us, %27
  %.25054.us = phi i32 [ %.04056.us, %27 ], [ %17, %.thread.us ]
  %30 = load i32, ptr %22, align 8, !tbaa !87
  br label %.sink.split

.sink.split:                                      ; preds = %28, %.thread51.us
  %.sink = phi i32 [ %30, %.thread51.us ], [ %29, %28 ]
  %.141.us.ph = phi i32 [ %.25054.us, %.thread51.us ], [ %.04056.us, %28 ]
  %.1.us.ph = phi i32 [ %30, %.thread51.us ], [ %.03758.us, %28 ]
  store i32 %.sink, ptr %1, align 4, !tbaa !101
  br label %31

31:                                               ; preds = %.sink.split, %.thread.us, %26, %.lr.ph.split.us
  %.141.us = phi i32 [ 0, %.lr.ph.split.us ], [ %.04056.us, %26 ], [ %17, %.thread.us ], [ %.141.us.ph, %.sink.split ]
  %.139.us = phi i32 [ 1, %.lr.ph.split.us ], [ 1, %26 ], [ 1, %.thread.us ], [ 0, %.sink.split ]
  %.1.us = phi i32 [ %.03758.us, %.lr.ph.split.us ], [ %.03758.us, %26 ], [ %.03758.us, %.thread.us ], [ %.1.us.ph, %.sink.split ]
  %32 = getelementptr inbounds nuw i8, ptr %.03559.us, i64 24
  %33 = load i32, ptr %32, align 8, !tbaa !94
  %.not.us = icmp eq i32 %33, 0
  br i1 %.not.us, label %._crit_edge, label %.lr.ph.split.us, !llvm.loop !97

.lr.ph.split:                                     ; preds = %.thread63, %49
  %34 = phi i32 [ %51, %49 ], [ %16, %.thread63 ]
  %.03559 = phi ptr [ %50, %49 ], [ %.036, %.thread63 ]
  %.03758 = phi i32 [ %.1, %49 ], [ 0, %.thread63 ]
  %.03857 = phi i32 [ %.139, %49 ], [ 1, %.thread63 ]
  %.04056 = phi i32 [ %.141, %49 ], [ 0, %.thread63 ]
  %35 = getelementptr inbounds nuw i8, ptr %.03559, i64 8
  %36 = load ptr, ptr %35, align 8, !tbaa !96
  %37 = icmp eq ptr %36, null
  br i1 %37, label %49, label %38

38:                                               ; preds = %.lr.ph.split
  %39 = tail call ptr %36() #11
  %40 = icmp eq i32 %.03857, 1
  %41 = icmp eq i32 %.04056, 0
  %or.cond = select i1 %40, i1 %41, i1 false
  %42 = tail call fastcc i32 @ssl_method_error(ptr noundef %0, ptr noundef %39)
  %.not4549 = icmp eq i32 %42, 0
  br i1 %or.cond, label %.thread, label %43

43:                                               ; preds = %38
  br i1 %.not4549, label %44, label %49

.thread:                                          ; preds = %38
  br i1 %.not4549, label %.thread51.thread, label %49

44:                                               ; preds = %43
  %.not46 = icmp eq i32 %.03857, 0
  br i1 %.not46, label %45, label %.thread51

45:                                               ; preds = %44
  %46 = load i32, ptr %39, align 8, !tbaa !87
  br label %.sink.split72

.thread51:                                        ; preds = %44
  %.not61 = icmp eq i32 %.04056, 0
  br i1 %.not61, label %47, label %.thread51.thread

.thread51.thread:                                 ; preds = %.thread, %.thread51
  %.2505467 = phi i32 [ %.04056, %.thread51 ], [ %34, %.thread ]
  store i32 %.2505467, ptr %3, align 4, !tbaa !101
  br label %47

47:                                               ; preds = %.thread51.thread, %.thread51
  %.2505468 = phi i32 [ %.2505467, %.thread51.thread ], [ 0, %.thread51 ]
  %48 = load i32, ptr %39, align 8, !tbaa !87
  br label %.sink.split72

.sink.split72:                                    ; preds = %45, %47
  %.sink73 = phi i32 [ %48, %47 ], [ %46, %45 ]
  %.141.ph = phi i32 [ %.2505468, %47 ], [ %.04056, %45 ]
  %.1.ph = phi i32 [ %48, %47 ], [ %.03758, %45 ]
  store i32 %.sink73, ptr %1, align 4, !tbaa !101
  br label %49

49:                                               ; preds = %.sink.split72, %.thread, %43, %.lr.ph.split
  %.141 = phi i32 [ 0, %.lr.ph.split ], [ %.04056, %43 ], [ %34, %.thread ], [ %.141.ph, %.sink.split72 ]
  %.139 = phi i32 [ 1, %.lr.ph.split ], [ 1, %43 ], [ 1, %.thread ], [ 0, %.sink.split72 ]
  %.1 = phi i32 [ %.03758, %.lr.ph.split ], [ %.03758, %43 ], [ %.03758, %.thread ], [ %.1.ph, %.sink.split72 ]
  %50 = getelementptr inbounds nuw i8, ptr %.03559, i64 24
  %51 = load i32, ptr %50, align 8, !tbaa !94
  %.not = icmp eq i32 %51, 0
  br i1 %.not, label %._crit_edge, label %.lr.ph.split, !llvm.loop !97

._crit_edge.thread:                               ; preds = %14, %.thread63
  store i32 0, ptr %2, align 4, !tbaa !101
  br label %53

._crit_edge:                                      ; preds = %49, %31
  %.037.lcssa = phi i32 [ %.1.us, %31 ], [ %.1, %49 ]
  %.037.lcssa.fr = freeze i32 %.037.lcssa
  store i32 %.037.lcssa.fr, ptr %2, align 4, !tbaa !101
  %52 = icmp eq i32 %.037.lcssa.fr, 0
  br i1 %52, label %53, label %54

53:                                               ; preds = %._crit_edge.thread, %._crit_edge
  br label %54

54:                                               ; preds = %53, %._crit_edge, %8
  %.0 = phi i32 [ %., %8 ], [ 191, %53 ], [ 0, %._crit_edge ]
  ret i32 %.0
}